; Function Attrs: nounwind uwtable
define dso_local void @PyThread_tss_free(ptr noundef %0) local_unnamed_addr #0 {
  %.not = icmp eq ptr %0, null
  br i1 %.not, label %8, label %2

2:                                                ; preds = %1
  %3 = load i32, ptr %0, align 4, !tbaa !186
  %.not.i = icmp eq i32 %3, 0
  br i1 %.not.i, label %PyThread_tss_delete.exit, label %4

4:                                                ; preds = %2
  %5 = getelementptr inbounds nuw i8, ptr %0, i64 4
  %6 = load i32, ptr %5, align 4, !tbaa !187
  %7 = tail call i32 @pthread_key_delete(i32 noundef %6) #13
  store i32 0, ptr %0, align 4, !tbaa !186
  br label %PyThread_tss_delete.exit

PyThread_tss_delete.exit:                         ; preds = %2, %4
  tail call void @PyMem_RawFree(ptr noundef nonnull %0) #13
  br label %8

8:                                                ; preds = %PyThread_tss_delete.exit, %1
  ret void
}